(dp0
Vengine
p1
S'pdflatex'
p2
sVpackages
p3
c__builtin__
set
p4
((lp5
Vgeometry
p6
aVtikz
p7
aVsubfigure
p8
aVgraphicx
p9
aVpgfplots
p10
atp11
Rp12
sVfiles_with_guttermarks
p13
g4
((lp14
V/Users/sivaramambikasaran/Github/CAT_2017/Lecture_1/function_interp/log(1_over_abs(x))/./Combine.tex
p15
aS'Combine.tex'
p16
atp17
Rp18
sVsynctex
p19
I01
s.