(dp0
Vengine
p1
S'pdflatex'
p2
sVpackages
p3
c__builtin__
set
p4
((lp5
Vgeometry
p6
aVsubfigure
p7
aVgraphicx
p8
atp9
Rp10
sVfiles_with_guttermarks
p11
g4
((lp12
S'Combine.tex'
p13
aV/Users/sivaramambikasaran/Github/CAT_2017/Lecture_1/Robustness_of_Chebyshev_Interpolation/Combine.tex
p14
aV/Users/sivaramambikasaran/Github/CAT_2017/Lecture_1/Robustness_of_Chebyshev_Interpolation/./Combine.tex
p15
atp16
Rp17
sVsynctex
p18
I01
s.