(dp0
Vengine
p1
S'pdflatex'
p2
sVpackages
p3
c__builtin__
set
p4
((lp5
Vgeometry
p6
aVtikz
p7
aVsubfigure
p8
aVgraphicx
p9
aVpgfplots
p10
atp11
Rp12
sVfiles_with_guttermarks
p13
g4
((lp14
S'Combine.tex'
p15
aV/Users/sivaramambikasaran/Github/CAT_2017/Lecture_1/function_interp/exp(-abs(x))/Combine.tex
p16
aV/Users/sivaramambikasaran/Github/CAT_2017/Lecture_1/function_interp/exp(-abs(x))/./Combine.tex
p17
atp18
Rp19
sVsynctex
p20
I01
s.