(dp0
Vengine
p1
S'pdflatex'
p2
sVpackages
p3
c__builtin__
set
p4
((lp5
Vgeometry
p6
aVtikz
p7
aVsubfigure
p8
aVgraphicx
p9
aVpgfplots
p10
atp11
Rp12
sVfiles_with_guttermarks
p13
g4
((lp14
S'Combine.tex'
p15
atp16
Rp17
sVsynctex
p18
I01
s.